target datalayout = "e-m:e-p270:32:32-p271:32:32-p272:64:64-i64:64-i128:128-f80:128-n8:16:32:64-S128"
target triple = "x86_64-pc-linux-gnu"

@__const._blend_Lab_scale.scale = private unnamed_addr constant [4 x float] [float 0x3F847AE140000000, float 7.812500e-03, float 7.812500e-03, float 1.000000e+00], align 16
@__const._blend_Lab_rescale.scale = private unnamed_addr constant [4 x float] [float 1.000000e+02, float 1.280000e+02, float 1.280000e+02, float 1.000000e+00], align 16

; Function Attrs: inlinehint nounwind uwtable
define internal void @_blend_Lab_rescale(ptr noundef %0, ptr noundef %1) #2 {
  %3 = alloca ptr, align 8
  %4 = alloca ptr, align 8
  %5 = alloca [4 x float], align 16
  %6 = alloca i64, align 8
  store ptr %0, ptr %3, align 8, !tbaa !11
  store ptr %1, ptr %4, align 8, !tbaa !11
  call void @llvm.lifetime.start.p0(i64 16, ptr %5) #8
  call void @llvm.memcpy.p0.p0.i64(ptr align 16 %5, ptr align 16 @__const._blend_Lab_rescale.scale, i64 16, i1 false)
  call void @llvm.lifetime.start.p0(i64 8, ptr %6) #8
  store i64 0, ptr %6, align 8, !tbaa !43
  br label %7

7:                                                ; preds = %23, %2
  %8 = load i64, ptr %6, align 8, !tbaa !43
  %9 = icmp ult i64 %8, 4
  br i1 %9, label %11, label %10

10:                                               ; preds = %7
  call void @llvm.lifetime.end.p0(i64 8, ptr %6) #8
  br label %26

11:                                               ; preds = %7
  %12 = load ptr, ptr %3, align 8, !tbaa !11
  %13 = load i64, ptr %6, align 8, !tbaa !43
  %14 = getelementptr inbounds nuw float, ptr %12, i64 %13
  %15 = load float, ptr %14, align 4, !tbaa !45
  %16 = load i64, ptr %6, align 8, !tbaa !43
  %17 = getelementptr inbounds nuw [4 x float], ptr %5, i64 0, i64 %16
  %18 = load float, ptr %17, align 4, !tbaa !45
  %19 = fmul reassoc nsz arcp contract afn float %15, %18
  %20 = load ptr, ptr %4, align 8, !tbaa !11
  %21 = load i64, ptr %6, align 8, !tbaa !43
  %22 = getelementptr inbounds nuw float, ptr %20, i64 %21
  store float %19, ptr %22, align 4, !tbaa !45
  br label %23

23:                                               ; preds = %11
  %24 = load i64, ptr %6, align 8, !tbaa !43
  %25 = add i64 %24, 1
  store i64 %25, ptr %6, align 8, !tbaa !43
  br label %7

26:                                               ; preds = %10
  call void @llvm.lifetime.end.p0(i64 16, ptr %5) #8
  ret void
}

; Function Attrs: inlinehint nounwind uwtable
define internal float @_CLAMP(float noundef %0, float noundef %1, float noundef %2) #2 {
  %4 = alloca float, align 4
  %5 = alloca float, align 4
  %6 = alloca float, align 4
  store float %0, ptr %4, align 4, !tbaa !45
  store float %1, ptr %5, align 4, !tbaa !45
  store float %2, ptr %6, align 4, !tbaa !45
  %7 = load float, ptr %4, align 4, !tbaa !45
  %8 = load float, ptr %5, align 4, !tbaa !45
  %9 = call reassoc nsz arcp contract afn float @llvm.maxnum.f32(float %7, float %8)
  %10 = load float, ptr %6, align 4, !tbaa !45
  %11 = call reassoc nsz arcp contract afn float @llvm.minnum.f32(float %9, float %10)
  ret float %11
}

; Function Attrs: inlinehint nounwind uwtable
define internal void @_blend_Lab_scale(ptr noundef %0, ptr noundef %1) #2 {
  %3 = alloca ptr, align 8
  %4 = alloca ptr, align 8
  %5 = alloca [4 x float], align 16
  %6 = alloca i64, align 8
  store ptr %0, ptr %3, align 8, !tbaa !11
  store ptr %1, ptr %4, align 8, !tbaa !11
  call void @llvm.lifetime.start.p0(i64 16, ptr %5) #8
  call void @llvm.memcpy.p0.p0.i64(ptr align 16 %5, ptr align 16 @__const._blend_Lab_scale.scale, i64 16, i1 false)
  call void @llvm.lifetime.start.p0(i64 8, ptr %6) #8
  store i64 0, ptr %6, align 8, !tbaa !43
  br label %7

7:                                                ; preds = %23, %2
  %8 = load i64, ptr %6, align 8, !tbaa !43
  %9 = icmp ult i64 %8, 4
  br i1 %9, label %11, label %10

10:                                               ; preds = %7
  call void @llvm.lifetime.end.p0(i64 8, ptr %6) #8
  br label %26

11:                                               ; preds = %7
  %12 = load ptr, ptr %3, align 8, !tbaa !11
  %13 = load i64, ptr %6, align 8, !tbaa !43
  %14 = getelementptr inbounds nuw float, ptr %12, i64 %13
  %15 = load float, ptr %14, align 4, !tbaa !45
  %16 = load i64, ptr %6, align 8, !tbaa !43
  %17 = getelementptr inbounds nuw [4 x float], ptr %5, i64 0, i64 %16
  %18 = load float, ptr %17, align 4, !tbaa !45
  %19 = fmul reassoc nsz arcp contract afn float %15, %18
  %20 = load ptr, ptr %4, align 8, !tbaa !11
  %21 = load i64, ptr %6, align 8, !tbaa !43
  %22 = getelementptr inbounds nuw float, ptr %20, i64 %21
  store float %19, ptr %22, align 4, !tbaa !45
  br label %23

23:                                               ; preds = %11
  %24 = load i64, ptr %6, align 8, !tbaa !43
  %25 = add i64 %24, 1
  store i64 %25, ptr %6, align 8, !tbaa !43
  br label %7

26:                                               ; preds = %10
  call void @llvm.lifetime.end.p0(i64 16, ptr %5) #8
  ret void
}

; Function Attrs: nounwind uwtable
define internal void @_blend_multiply(ptr noundef %0, ptr noundef %1, ptr noundef %2, ptr noalias noundef %3, i64 noundef %4, ptr noundef %5, ptr noundef %6) #0 {
  %8 = alloca ptr, align 8
  %9 = alloca ptr, align 8
  %10 = alloca ptr, align 8
  %11 = alloca ptr, align 8
  %12 = alloca i64, align 8
  %13 = alloca ptr, align 8
  %14 = alloca ptr, align 8
  %15 = alloca i64, align 8
  %16 = alloca i64, align 8
  %17 = alloca float, align 4
  %18 = alloca [4 x float], align 16
  %19 = alloca [4 x float], align 16
  %20 = alloca float, align 4
  store ptr %0, ptr %8, align 8, !tbaa !11
  store ptr %1, ptr %9, align 8, !tbaa !11
  store ptr %2, ptr %10, align 8, !tbaa !11
  store ptr %3, ptr %11, align 8, !tbaa !11
  store i64 %4, ptr %12, align 8, !tbaa !43
  store ptr %5, ptr %13, align 8, !tbaa !11
  store ptr %6, ptr %14, align 8, !tbaa !11
  call void @llvm.lifetime.start.p0(i64 8, ptr %15) #8
  store i64 0, ptr %15, align 8, !tbaa !43
  call void @llvm.lifetime.start.p0(i64 8, ptr %16) #8
  store i64 0, ptr %16, align 8, !tbaa !43
  br label %21

21:                                               ; preds = %124, %7
  %22 = load i64, ptr %15, align 8, !tbaa !43
  %23 = load i64, ptr %12, align 8, !tbaa !43
  %24 = icmp ult i64 %22, %23
  br i1 %24, label %26, label %25

25:                                               ; preds = %21
  call void @llvm.lifetime.end.p0(i64 8, ptr %16) #8
  call void @llvm.lifetime.end.p0(i64 8, ptr %15) #8
  br label %129

26:                                               ; preds = %21
  call void @llvm.lifetime.start.p0(i64 4, ptr %17) #8
  %27 = load ptr, ptr %11, align 8, !tbaa !11
  %28 = load i64, ptr %15, align 8, !tbaa !43
  %29 = getelementptr inbounds nuw float, ptr %27, i64 %28
  %30 = load float, ptr %29, align 4, !tbaa !45
  store float %30, ptr %17, align 4, !tbaa !45
  call void @llvm.lifetime.start.p0(i64 16, ptr %18) #8
  call void @llvm.lifetime.start.p0(i64 16, ptr %19) #8
  %31 = load ptr, ptr %8, align 8, !tbaa !11
  %32 = load i64, ptr %16, align 8, !tbaa !43
  %33 = getelementptr inbounds nuw float, ptr %31, i64 %32
  %34 = getelementptr inbounds [4 x float], ptr %18, i64 0, i64 0
  call void @_blend_Lab_scale(ptr noundef %33, ptr noundef %34)
  %35 = load ptr, ptr %9, align 8, !tbaa !11
  %36 = load i64, ptr %16, align 8, !tbaa !43
  %37 = getelementptr inbounds nuw float, ptr %35, i64 %36
  %38 = getelementptr inbounds [4 x float], ptr %19, i64 0, i64 0
  call void @_blend_Lab_scale(ptr noundef %37, ptr noundef %38)
  %39 = getelementptr inbounds [4 x float], ptr %18, i64 0, i64 0
  %40 = load float, ptr %39, align 16, !tbaa !45
  %41 = load float, ptr %17, align 4, !tbaa !45
  %42 = fsub reassoc nsz arcp contract afn float 1.000000e+00, %41
  %43 = fmul reassoc nsz arcp contract afn float %40, %42
  %44 = getelementptr inbounds [4 x float], ptr %18, i64 0, i64 0
  %45 = load float, ptr %44, align 16, !tbaa !45
  %46 = getelementptr inbounds [4 x float], ptr %19, i64 0, i64 0
  %47 = load float, ptr %46, align 16, !tbaa !45
  %48 = fmul reassoc nsz arcp contract afn float %45, %47
  %49 = load float, ptr %17, align 4, !tbaa !45
  %50 = fmul reassoc nsz arcp contract afn float %48, %49
  %51 = fadd reassoc nsz arcp contract afn float %43, %50
  %52 = load ptr, ptr %13, align 8, !tbaa !11
  %53 = getelementptr inbounds float, ptr %52, i64 0
  %54 = load float, ptr %53, align 4, !tbaa !45
  %55 = load ptr, ptr %14, align 8, !tbaa !11
  %56 = getelementptr inbounds float, ptr %55, i64 0
  %57 = load float, ptr %56, align 4, !tbaa !45
  %58 = call reassoc nsz arcp contract afn float @_CLAMP(float noundef %51, float noundef %54, float noundef %57)
  %59 = getelementptr inbounds [4 x float], ptr %19, i64 0, i64 0
  store float %58, ptr %59, align 16, !tbaa !45
  call void @llvm.lifetime.start.p0(i64 4, ptr %20) #8
  %60 = getelementptr inbounds [4 x float], ptr %18, i64 0, i64 0
  %61 = load float, ptr %60, align 16, !tbaa !45
  %62 = call reassoc nsz arcp contract afn float @llvm.maxnum.f32(float %61, float 0x3F847AE140000000)
  store float %62, ptr %20, align 4, !tbaa !45
  %63 = getelementptr inbounds [4 x float], ptr %18, i64 0, i64 1
  %64 = load float, ptr %63, align 4, !tbaa !45
  %65 = load float, ptr %17, align 4, !tbaa !45
  %66 = fsub reassoc nsz arcp contract afn float 1.000000e+00, %65
  %67 = fmul reassoc nsz arcp contract afn float %64, %66
  %68 = getelementptr inbounds [4 x float], ptr %18, i64 0, i64 1
  %69 = load float, ptr %68, align 4, !tbaa !45
  %70 = getelementptr inbounds [4 x float], ptr %19, i64 0, i64 1
  %71 = load float, ptr %70, align 4, !tbaa !45
  %72 = fadd reassoc nsz arcp contract afn float %69, %71
  %73 = getelementptr inbounds [4 x float], ptr %19, i64 0, i64 0
  %74 = load float, ptr %73, align 16, !tbaa !45
  %75 = fmul reassoc nsz arcp contract afn float %72, %74
  %76 = load float, ptr %20, align 4, !tbaa !45
  %77 = fdiv reassoc nsz arcp contract afn float %75, %76
  %78 = load float, ptr %17, align 4, !tbaa !45
  %79 = fmul reassoc nsz arcp contract afn float %77, %78
  %80 = fadd reassoc nsz arcp contract afn float %67, %79
  %81 = load ptr, ptr %13, align 8, !tbaa !11
  %82 = getelementptr inbounds float, ptr %81, i64 1
  %83 = load float, ptr %82, align 4, !tbaa !45
  %84 = load ptr, ptr %14, align 8, !tbaa !11
  %85 = getelementptr inbounds float, ptr %84, i64 1
  %86 = load float, ptr %85, align 4, !tbaa !45
  %87 = call reassoc nsz arcp contract afn float @_CLAMP(float noundef %80, float noundef %83, float noundef %86)
  %88 = getelementptr inbounds [4 x float], ptr %19, i64 0, i64 1
  store float %87, ptr %88, align 4, !tbaa !45
  %89 = getelementptr inbounds [4 x float], ptr %18, i64 0, i64 2
  %90 = load float, ptr %89, align 8, !tbaa !45
  %91 = load float, ptr %17, align 4, !tbaa !45
  %92 = fsub reassoc nsz arcp contract afn float 1.000000e+00, %91
  %93 = fmul reassoc nsz arcp contract afn float %90, %92
  %94 = getelementptr inbounds [4 x float], ptr %18, i64 0, i64 2
  %95 = load float, ptr %94, align 8, !tbaa !45
  %96 = getelementptr inbounds [4 x float], ptr %19, i64 0, i64 2
  %97 = load float, ptr %96, align 8, !tbaa !45
  %98 = fadd reassoc nsz arcp contract afn float %95, %97
  %99 = getelementptr inbounds [4 x float], ptr %19, i64 0, i64 0
  %100 = load float, ptr %99, align 16, !tbaa !45
  %101 = fmul reassoc nsz arcp contract afn float %98, %100
  %102 = load float, ptr %20, align 4, !tbaa !45
  %103 = fdiv reassoc nsz arcp contract afn float %101, %102
  %104 = load float, ptr %17, align 4, !tbaa !45
  %105 = fmul reassoc nsz arcp contract afn float %103, %104
  %106 = fadd reassoc nsz arcp contract afn float %93, %105
  %107 = load ptr, ptr %13, align 8, !tbaa !11
  %108 = getelementptr inbounds float, ptr %107, i64 2
  %109 = load float, ptr %108, align 4, !tbaa !45
  %110 = load ptr, ptr %14, align 8, !tbaa !11
  %111 = getelementptr inbounds float, ptr %110, i64 2
  %112 = load float, ptr %111, align 4, !tbaa !45
  %113 = call reassoc nsz arcp contract afn float @_CLAMP(float noundef %106, float noundef %109, float noundef %112)
  %114 = getelementptr inbounds [4 x float], ptr %19, i64 0, i64 2
  store float %113, ptr %114, align 8, !tbaa !45
  %115 = getelementptr inbounds [4 x float], ptr %19, i64 0, i64 0
  %116 = load ptr, ptr %10, align 8, !tbaa !11
  %117 = load i64, ptr %16, align 8, !tbaa !43
  %118 = getelementptr inbounds nuw float, ptr %116, i64 %117
  call void @_blend_Lab_rescale(ptr noundef %115, ptr noundef %118)
  %119 = load float, ptr %17, align 4, !tbaa !45
  %120 = load ptr, ptr %10, align 8, !tbaa !11
  %121 = load i64, ptr %16, align 8, !tbaa !43
  %122 = add i64 %121, 3
  %123 = getelementptr inbounds nuw float, ptr %120, i64 %122
  store float %119, ptr %123, align 4, !tbaa !45
  call void @llvm.lifetime.end.p0(i64 4, ptr %20) #8
  call void @llvm.lifetime.end.p0(i64 16, ptr %19) #8
  call void @llvm.lifetime.end.p0(i64 16, ptr %18) #8
  call void @llvm.lifetime.end.p0(i64 4, ptr %17) #8
  br label %124

124:                                              ; preds = %26
  %125 = load i64, ptr %15, align 8, !tbaa !43
  %126 = add i64 %125, 1
  store i64 %126, ptr %15, align 8, !tbaa !43
  %127 = load i64, ptr %16, align 8, !tbaa !43
  %128 = add i64 %127, 4
  store i64 %128, ptr %16, align 8, !tbaa !43
  br label %21

129:                                              ; preds = %25
  ret void
}