; Function Attrs: nofree norecurse nosync nounwind memory(argmem: readwrite) uwtable
define internal void @_blend_multiply(ptr noundef readonly captures(none) %0, ptr noundef readonly captures(none) %1, ptr noundef writeonly captures(none) %2, ptr noalias noundef readonly captures(none) %3, i64 noundef %4, ptr noundef readonly captures(none) %5, ptr noundef readonly captures(none) %6) unnamed_addr #11 {
  %8 = alloca [4 x float], align 16
  %9 = alloca [4 x float], align 16
  %.not = icmp eq i64 %4, 0
  br i1 %.not, label %._crit_edge, label %.lr.ph

.lr.ph:                                           ; preds = %7
  %10 = getelementptr inbounds nuw i8, ptr %8, i64 4
  %11 = getelementptr inbounds nuw i8, ptr %9, i64 4
  %12 = getelementptr inbounds nuw i8, ptr %5, i64 4
  %13 = getelementptr inbounds nuw i8, ptr %6, i64 4
  %14 = getelementptr inbounds nuw i8, ptr %8, i64 8
  %15 = getelementptr inbounds nuw i8, ptr %9, i64 8
  %16 = getelementptr inbounds nuw i8, ptr %5, i64 8
  %17 = getelementptr inbounds nuw i8, ptr %6, i64 8
  br label %18

._crit_edge:                                      ; preds = %_blend_Lab_rescale.exit, %7
  ret void

18:                                               ; preds = %.lr.ph, %_blend_Lab_rescale.exit
  %.035 = phi i64 [ 0, %.lr.ph ], [ %82, %_blend_Lab_rescale.exit ]
  %.02834 = phi i64 [ 0, %.lr.ph ], [ %83, %_blend_Lab_rescale.exit ]
  %19 = getelementptr inbounds nuw float, ptr %3, i64 %.035
  %20 = load float, ptr %19, align 4, !tbaa !36
  call void @llvm.lifetime.start.p0(i64 16, ptr nonnull %8) #8
  call void @llvm.lifetime.start.p0(i64 16, ptr nonnull %9) #8
  %21 = getelementptr inbounds nuw float, ptr %0, i64 %.02834
  br label %22

22:                                               ; preds = %22, %18
  %.06.i = phi i64 [ 0, %18 ], [ %29, %22 ]
  %23 = getelementptr inbounds nuw float, ptr %21, i64 %.06.i
  %24 = load float, ptr %23, align 4, !tbaa !36
  %25 = getelementptr inbounds nuw [4 x float], ptr @__const._blend_Lab_scale.scale, i64 0, i64 %.06.i
  %26 = load float, ptr %25, align 4, !tbaa !36
  %27 = fmul reassoc nsz arcp contract afn float %26, %24
  %28 = getelementptr inbounds nuw float, ptr %8, i64 %.06.i
  store float %27, ptr %28, align 4, !tbaa !36
  %29 = add nuw nsw i64 %.06.i, 1
  %exitcond.not.i = icmp eq i64 %29, 4
  br i1 %exitcond.not.i, label %_blend_Lab_scale.exit, label %22

_blend_Lab_scale.exit:                            ; preds = %22
  %30 = getelementptr inbounds nuw float, ptr %1, i64 %.02834
  br label %31

31:                                               ; preds = %31, %_blend_Lab_scale.exit
  %.06.i29 = phi i64 [ 0, %_blend_Lab_scale.exit ], [ %38, %31 ]
  %32 = getelementptr inbounds nuw float, ptr %30, i64 %.06.i29
  %33 = load float, ptr %32, align 4, !tbaa !36
  %34 = getelementptr inbounds nuw [4 x float], ptr @__const._blend_Lab_scale.scale, i64 0, i64 %.06.i29
  %35 = load float, ptr %34, align 4, !tbaa !36
  %36 = fmul reassoc nsz arcp contract afn float %35, %33
  %37 = getelementptr inbounds nuw float, ptr %9, i64 %.06.i29
  store float %36, ptr %37, align 4, !tbaa !36
  %38 = add nuw nsw i64 %.06.i29, 1
  %exitcond.not.i30 = icmp eq i64 %38, 4
  br i1 %exitcond.not.i30, label %_blend_Lab_scale.exit31, label %31

_blend_Lab_scale.exit31:                          ; preds = %31
  %39 = load float, ptr %8, align 16, !tbaa !36
  %40 = fsub reassoc nsz arcp contract afn float 1.000000e+00, %20
  %41 = load float, ptr %9, align 16, !tbaa !36
  %42 = fmul reassoc nsz arcp contract afn float %41, %20
  %reass.add = fadd reassoc nsz arcp contract afn float %42, %40
  %reass.mul = fmul reassoc nsz arcp contract afn float %reass.add, %39
  %43 = load float, ptr %5, align 4, !tbaa !36
  %44 = load float, ptr %6, align 4, !tbaa !36
  %45 = tail call reassoc nsz arcp contract afn float @llvm.maxnum.f32(float %reass.mul, float %43)
  %46 = tail call reassoc nsz arcp contract afn noundef float @llvm.minnum.f32(float %45, float %44)
  store float %46, ptr %9, align 16, !tbaa !36
  %47 = tail call reassoc nsz arcp contract afn float @llvm.maxnum.f32(float %39, float 0x3F847AE140000000)
  %48 = load float, ptr %10, align 4, !tbaa !36
  %49 = fmul reassoc nsz arcp contract afn float %48, %40
  %50 = load float, ptr %11, align 4, !tbaa !36
  %51 = fadd reassoc nsz arcp contract afn float %50, %48
  %52 = fmul reassoc nsz arcp contract afn float %46, %20
  %53 = fmul reassoc nsz arcp contract afn float %52, %51
  %54 = fdiv reassoc nsz arcp contract afn float %53, %47
  %55 = fadd reassoc nsz arcp contract afn float %54, %49
  %56 = load float, ptr %12, align 4, !tbaa !36
  %57 = load float, ptr %13, align 4, !tbaa !36
  %58 = tail call reassoc nsz arcp contract afn float @llvm.maxnum.f32(float %55, float %56)
  %59 = tail call reassoc nsz arcp contract afn noundef float @llvm.minnum.f32(float %58, float %57)
  store float %59, ptr %11, align 4, !tbaa !36
  %60 = load float, ptr %14, align 8, !tbaa !36
  %61 = fmul reassoc nsz arcp contract afn float %60, %40
  %62 = load float, ptr %15, align 8, !tbaa !36
  %63 = fadd reassoc nsz arcp contract afn float %62, %60
  %64 = fmul reassoc nsz arcp contract afn float %52, %63
  %65 = fdiv reassoc nsz arcp contract afn float %64, %47
  %66 = fadd reassoc nsz arcp contract afn float %65, %61
  %67 = load float, ptr %16, align 4, !tbaa !36
  %68 = load float, ptr %17, align 4, !tbaa !36
  %69 = tail call reassoc nsz arcp contract afn float @llvm.maxnum.f32(float %66, float %67)
  %70 = tail call reassoc nsz arcp contract afn noundef float @llvm.minnum.f32(float %69, float %68)
  store float %70, ptr %15, align 8, !tbaa !36
  %71 = getelementptr inbounds nuw float, ptr %2, i64 %.02834
  br label %72

72:                                               ; preds = %72, %_blend_Lab_scale.exit31
  %.06.i32 = phi i64 [ 0, %_blend_Lab_scale.exit31 ], [ %79, %72 ]
  %73 = getelementptr inbounds nuw float, ptr %9, i64 %.06.i32
  %74 = load float, ptr %73, align 4, !tbaa !36
  %75 = getelementptr inbounds nuw [4 x float], ptr @__const._blend_Lab_rescale.scale, i64 0, i64 %.06.i32
  %76 = load float, ptr %75, align 4, !tbaa !36
  %77 = fmul reassoc nsz arcp contract afn float %76, %74
  %78 = getelementptr inbounds nuw float, ptr %71, i64 %.06.i32
  store float %77, ptr %78, align 4, !tbaa !36
  %79 = add nuw nsw i64 %.06.i32, 1
  %exitcond.not.i33 = icmp eq i64 %79, 4
  br i1 %exitcond.not.i33, label %_blend_Lab_rescale.exit, label %72

_blend_Lab_rescale.exit:                          ; preds = %72
  %80 = or disjoint i64 %.02834, 3
  %81 = getelementptr inbounds nuw float, ptr %2, i64 %80
  store float %20, ptr %81, align 4, !tbaa !36
  call void @llvm.lifetime.end.p0(i64 16, ptr nonnull %9) #8
  call void @llvm.lifetime.end.p0(i64 16, ptr nonnull %8) #8
  %82 = add nuw i64 %.035, 1
  %83 = add i64 %.02834, 4
  %exitcond.not = icmp eq i64 %82, %4
  br i1 %exitcond.not, label %._crit_edge, label %18
}